; Function Attrs: nounwind uwtable
define internal range(i32 1, 0) i32 @_yaml_write_handler(ptr noundef %0, ptr noundef readonly captures(none) %1, i64 noundef %2) #0 {
  %4 = trunc i64 %2 to i32
  %5 = add i32 %4, 1
  %6 = tail call i32 @try_grow_buf_remaining(ptr noundef %0, i32 noundef %5) #6
  %.not = icmp eq i32 %6, 0
  br i1 %.not, label %7, label %19

7:                                                ; preds = %3
  %8 = getelementptr inbounds nuw i8, ptr %0, i64 8
  %9 = load ptr, ptr %8, align 8
  %10 = getelementptr inbounds nuw i8, ptr %0, i64 20
  %11 = load i32, ptr %10, align 4
  %12 = zext i32 %11 to i64
  %13 = getelementptr inbounds nuw i8, ptr %9, i64 %12
  tail call void @llvm.memcpy.p0.p0.i64(ptr align 1 %13, ptr align 1 %1, i64 %2, i1 false)
  %14 = load i32, ptr %10, align 4
  %15 = add i32 %14, %4
  store i32 %15, ptr %10, align 4
  %16 = load ptr, ptr %8, align 8
  %17 = zext i32 %15 to i64
  %18 = getelementptr inbounds nuw i8, ptr %16, i64 %17
  store i8 0, ptr %18, align 1
  br label %19

19:                                               ; preds = %3, %7
  %.0 = phi i32 [ 1, %7 ], [ %6, %3 ]
  ret i32 %.0
}